; ModuleID = './inp/file5.cpp'
source_filename = "./inp/file5.cpp"
target datalayout = "e-m:e-p270:32:32-p271:32:32-p272:64:64-i64:64-f80:128-n8:16:32:64-S128"
target triple = "x86_64-unknown-linux-gnu"

module asm ".globl _ZSt21ios_base_library_initv"

%"class.std::basic_ostream" = type { ptr, %"class.std::basic_ios" }
%"class.std::basic_ios" = type { %"class.std::ios_base", ptr, i8, i8, ptr, ptr, ptr, ptr }
%"class.std::ios_base" = type { ptr, i64, i64, i32, i32, i32, ptr, %"struct.std::ios_base::_Words", [8 x %"struct.std::ios_base::_Words"], i32, ptr, %"class.std::locale" }
%"struct.std::ios_base::_Words" = type { ptr, i64 }
%"class.std::locale" = type { ptr }
%"class.std::ctype" = type <{ %"class.std::locale::facet.base", [4 x i8], ptr, i8, [7 x i8], ptr, ptr, ptr, i8, [256 x i8], [256 x i8], i8, [6 x i8] }>
%"class.std::locale::facet.base" = type <{ ptr, i32 }>

@_ZSt4cout = external global %"class.std::basic_ostream", align 8
@.str = private unnamed_addr constant [7 x i8] c"Area: \00", align 1
@.str.2 = private unnamed_addr constant [17 x i8] c"Drawing a circle\00", align 1
@.str.3 = private unnamed_addr constant [20 x i8] c"Drawing a rectangle\00", align 1

; Function Attrs: norecurse uwtable
define dso_local noundef i32 @main() local_unnamed_addr #0 {
  %1 = tail call noundef nonnull align 8 dereferenceable(8) ptr @_ZSt16__ostream_insertIcSt11char_traitsIcEERSt13basic_ostreamIT_T0_ES6_PKS3_l(ptr noundef nonnull align 8 dereferenceable(8) @_ZSt4cout, ptr noundef nonnull @.str.2, i64 noundef 16)
  %2 = load ptr, ptr @_ZSt4cout, align 8, !tbaa !5
  %3 = getelementptr i8, ptr %2, i64 -24
  %4 = load i64, ptr %3, align 8
  %5 = getelementptr inbounds i8, ptr @_ZSt4cout, i64 %4
  %6 = getelementptr inbounds %"class.std::basic_ios", ptr %5, i64 0, i32 5
  %7 = load ptr, ptr %6, align 8, !tbaa !8
  %8 = icmp eq ptr %7, null
  br i1 %8, label %9, label %10

9:                                                ; preds = %0
  tail call void @_ZSt16__throw_bad_castv() #3
  unreachable

10:                                               ; preds = %0
  %11 = getelementptr inbounds %"class.std::ctype", ptr %7, i64 0, i32 8
  %12 = load i8, ptr %11, align 8, !tbaa !20
  %13 = icmp eq i8 %12, 0
  br i1 %13, label %17, label %14

14:                                               ; preds = %10
  %15 = getelementptr inbounds %"class.std::ctype", ptr %7, i64 0, i32 9, i64 10
  %16 = load i8, ptr %15, align 1, !tbaa !23
  br label %22

17:                                               ; preds = %10
  tail call void @_ZNKSt5ctypeIcE13_M_widen_initEv(ptr noundef nonnull align 8 dereferenceable(570) %7)
  %18 = load ptr, ptr %7, align 8, !tbaa !5
  %19 = getelementptr inbounds ptr, ptr %18, i64 6
  %20 = load ptr, ptr %19, align 8
  %21 = tail call noundef signext i8 %20(ptr noundef nonnull align 8 dereferenceable(570) %7, i8 noundef signext 10)
  br label %22

22:                                               ; preds = %14, %17
  %23 = phi i8 [ %16, %14 ], [ %21, %17 ]
  %24 = tail call noundef nonnull align 8 dereferenceable(8) ptr @_ZNSo3putEc(ptr noundef nonnull align 8 dereferenceable(8) @_ZSt4cout, i8 noundef signext %23)
  %25 = tail call noundef nonnull align 8 dereferenceable(8) ptr @_ZNSo5flushEv(ptr noundef nonnull align 8 dereferenceable(8) %24)
  %26 = tail call noundef nonnull align 8 dereferenceable(8) ptr @_ZSt16__ostream_insertIcSt11char_traitsIcEERSt13basic_ostreamIT_T0_ES6_PKS3_l(ptr noundef nonnull align 8 dereferenceable(8) @_ZSt4cout, ptr noundef nonnull @.str, i64 noundef 6)
  %27 = tail call noundef nonnull align 8 dereferenceable(8) ptr @_ZNSo9_M_insertIdEERSoT_(ptr noundef nonnull align 8 dereferenceable(8) @_ZSt4cout, double noundef 7.850000e+01)
  %28 = load ptr, ptr %27, align 8, !tbaa !5
  %29 = getelementptr i8, ptr %28, i64 -24
  %30 = load i64, ptr %29, align 8
  %31 = getelementptr inbounds i8, ptr %27, i64 %30
  %32 = getelementptr inbounds %"class.std::basic_ios", ptr %31, i64 0, i32 5
  %33 = load ptr, ptr %32, align 8, !tbaa !8
  %34 = icmp eq ptr %33, null
  br i1 %34, label %35, label %36

35:                                               ; preds = %73, %22
  tail call void @_ZSt16__throw_bad_castv() #3
  unreachable

36:                                               ; preds = %22
  %37 = getelementptr inbounds %"class.std::ctype", ptr %33, i64 0, i32 8
  %38 = load i8, ptr %37, align 8, !tbaa !20
  %39 = icmp eq i8 %38, 0
  br i1 %39, label %43, label %40

40:                                               ; preds = %36
  %41 = getelementptr inbounds %"class.std::ctype", ptr %33, i64 0, i32 9, i64 10
  %42 = load i8, ptr %41, align 1, !tbaa !23
  br label %48

43:                                               ; preds = %36
  tail call void @_ZNKSt5ctypeIcE13_M_widen_initEv(ptr noundef nonnull align 8 dereferenceable(570) %33)
  %44 = load ptr, ptr %33, align 8, !tbaa !5
  %45 = getelementptr inbounds ptr, ptr %44, i64 6
  %46 = load ptr, ptr %45, align 8
  %47 = tail call noundef signext i8 %46(ptr noundef nonnull align 8 dereferenceable(570) %33, i8 noundef signext 10)
  br label %48

48:                                               ; preds = %40, %43
  %49 = phi i8 [ %42, %40 ], [ %47, %43 ]
  %50 = tail call noundef nonnull align 8 dereferenceable(8) ptr @_ZNSo3putEc(ptr noundef nonnull align 8 dereferenceable(8) %27, i8 noundef signext %49)
  %51 = tail call noundef nonnull align 8 dereferenceable(8) ptr @_ZNSo5flushEv(ptr noundef nonnull align 8 dereferenceable(8) %50)
  %52 = tail call noundef nonnull align 8 dereferenceable(8) ptr @_ZSt16__ostream_insertIcSt11char_traitsIcEERSt13basic_ostreamIT_T0_ES6_PKS3_l(ptr noundef nonnull align 8 dereferenceable(8) @_ZSt4cout, ptr noundef nonnull @.str.3, i64 noundef 19)
  %53 = load ptr, ptr @_ZSt4cout, align 8, !tbaa !5
  %54 = getelementptr i8, ptr %53, i64 -24
  %55 = load i64, ptr %54, align 8
  %56 = getelementptr inbounds i8, ptr @_ZSt4cout, i64 %55
  %57 = getelementptr inbounds %"class.std::basic_ios", ptr %56, i64 0, i32 5
  %58 = load ptr, ptr %57, align 8, !tbaa !8
  %59 = icmp eq ptr %58, null
  br i1 %59, label %60, label %61

60:                                               ; preds = %48
  tail call void @_ZSt16__throw_bad_castv() #3
  unreachable

61:                                               ; preds = %48
  %62 = getelementptr inbounds %"class.std::ctype", ptr %58, i64 0, i32 8
  %63 = load i8, ptr %62, align 8, !tbaa !20
  %64 = icmp eq i8 %63, 0
  br i1 %64, label %68, label %65

65:                                               ; preds = %61
  %66 = getelementptr inbounds %"class.std::ctype", ptr %58, i64 0, i32 9, i64 10
  %67 = load i8, ptr %66, align 1, !tbaa !23
  br label %73

68:                                               ; preds = %61
  tail call void @_ZNKSt5ctypeIcE13_M_widen_initEv(ptr noundef nonnull align 8 dereferenceable(570) %58)
  %69 = load ptr, ptr %58, align 8, !tbaa !5
  %70 = getelementptr inbounds ptr, ptr %69, i64 6
  %71 = load ptr, ptr %70, align 8
  %72 = tail call noundef signext i8 %71(ptr noundef nonnull align 8 dereferenceable(570) %58, i8 noundef signext 10)
  br label %73

73:                                               ; preds = %65, %68
  %74 = phi i8 [ %67, %65 ], [ %72, %68 ]
  %75 = tail call noundef nonnull align 8 dereferenceable(8) ptr @_ZNSo3putEc(ptr noundef nonnull align 8 dereferenceable(8) @_ZSt4cout, i8 noundef signext %74)
  %76 = tail call noundef nonnull align 8 dereferenceable(8) ptr @_ZNSo5flushEv(ptr noundef nonnull align 8 dereferenceable(8) %75)
  %77 = tail call noundef nonnull align 8 dereferenceable(8) ptr @_ZSt16__ostream_insertIcSt11char_traitsIcEERSt13basic_ostreamIT_T0_ES6_PKS3_l(ptr noundef nonnull align 8 dereferenceable(8) @_ZSt4cout, ptr noundef nonnull @.str, i64 noundef 6)
  %78 = tail call noundef nonnull align 8 dereferenceable(8) ptr @_ZNSo9_M_insertIdEERSoT_(ptr noundef nonnull align 8 dereferenceable(8) @_ZSt4cout, double noundef 1.200000e+01)
  %79 = load ptr, ptr %78, align 8, !tbaa !5
  %80 = getelementptr i8, ptr %79, i64 -24
  %81 = load i64, ptr %80, align 8
  %82 = getelementptr inbounds i8, ptr %78, i64 %81
  %83 = getelementptr inbounds %"class.std::basic_ios", ptr %82, i64 0, i32 5
  %84 = load ptr, ptr %83, align 8, !tbaa !8
  %85 = icmp eq ptr %84, null
  br i1 %85, label %35, label %86

86:                                               ; preds = %73
  %87 = getelementptr inbounds %"class.std::ctype", ptr %84, i64 0, i32 8
  %88 = load i8, ptr %87, align 8, !tbaa !20
  %89 = icmp eq i8 %88, 0
  br i1 %89, label %93, label %90

90:                                               ; preds = %86
  %91 = getelementptr inbounds %"class.std::ctype", ptr %84, i64 0, i32 9, i64 10
  %92 = load i8, ptr %91, align 1, !tbaa !23
  br label %98

93:                                               ; preds = %86
  tail call void @_ZNKSt5ctypeIcE13_M_widen_initEv(ptr noundef nonnull align 8 dereferenceable(570) %84)
  %94 = load ptr, ptr %84, align 8, !tbaa !5
  %95 = getelementptr inbounds ptr, ptr %94, i64 6
  %96 = load ptr, ptr %95, align 8
  %97 = tail call noundef signext i8 %96(ptr noundef nonnull align 8 dereferenceable(570) %84, i8 noundef signext 10)
  br label %98

98:                                               ; preds = %93, %90
  %99 = phi i8 [ %92, %90 ], [ %97, %93 ]
  %100 = tail call noundef nonnull align 8 dereferenceable(8) ptr @_ZNSo3putEc(ptr noundef nonnull align 8 dereferenceable(8) %78, i8 noundef signext %99)
  %101 = tail call noundef nonnull align 8 dereferenceable(8) ptr @_ZNSo5flushEv(ptr noundef nonnull align 8 dereferenceable(8) %100)
  ret i32 0
}

declare noundef nonnull align 8 dereferenceable(8) ptr @_ZSt16__ostream_insertIcSt11char_traitsIcEERSt13basic_ostreamIT_T0_ES6_PKS3_l(ptr noundef nonnull align 8 dereferenceable(8), ptr noundef, i64 noundef) local_unnamed_addr #1

declare noundef nonnull align 8 dereferenceable(8) ptr @_ZNSo3putEc(ptr noundef nonnull align 8 dereferenceable(8), i8 noundef signext) local_unnamed_addr #1

declare noundef nonnull align 8 dereferenceable(8) ptr @_ZNSo5flushEv(ptr noundef nonnull align 8 dereferenceable(8)) local_unnamed_addr #1

; Function Attrs: noreturn
declare void @_ZSt16__throw_bad_castv() local_unnamed_addr #2

declare void @_ZNKSt5ctypeIcE13_M_widen_initEv(ptr noundef nonnull align 8 dereferenceable(570)) local_unnamed_addr #1

declare noundef nonnull align 8 dereferenceable(8) ptr @_ZNSo9_M_insertIdEERSoT_(ptr noundef nonnull align 8 dereferenceable(8), double noundef) local_unnamed_addr #1

attributes #0 = { norecurse uwtable "min-legal-vector-width"="0" "no-trapping-math"="true" "stack-protector-buffer-size"="8" "target-cpu"="x86-64" "target-features"="+cmov,+cx8,+fxsr,+mmx,+sse,+sse2,+x87" "tune-cpu"="generic" }
attributes #1 = { "no-trapping-math"="true" "stack-protector-buffer-size"="8" "target-cpu"="x86-64" "target-features"="+cmov,+cx8,+fxsr,+mmx,+sse,+sse2,+x87" "tune-cpu"="generic" }
attributes #2 = { noreturn "no-trapping-math"="true" "stack-protector-buffer-size"="8" "target-cpu"="x86-64" "target-features"="+cmov,+cx8,+fxsr,+mmx,+sse,+sse2,+x87" "tune-cpu"="generic" }
attributes #3 = { noreturn }

!llvm.module.flags = !{!0, !1, !2, !3}
!llvm.ident = !{!4}

!0 = !{i32 1, !"wchar_size", i32 4}
!1 = !{i32 8, !"PIC Level", i32 2}
!2 = !{i32 7, !"PIE Level", i32 2}
!3 = !{i32 7, !"uwtable", i32 2}
!4 = !{!"clang version 17.0.6 (https://github.com/llvm/llvm-project.git 6009708b4367171ccdbf4b5905cb6a803753fe18)"}
!5 = !{!6, !6, i64 0}
!6 = !{!"vtable pointer", !7, i64 0}
!7 = !{!"Simple C++ TBAA"}
!8 = !{!9, !15, i64 240}
!9 = !{!"_ZTSSt9basic_iosIcSt11char_traitsIcEE", !10, i64 0, !15, i64 216, !12, i64 224, !19, i64 225, !15, i64 232, !15, i64 240, !15, i64 248, !15, i64 256}
!10 = !{!"_ZTSSt8ios_base", !11, i64 8, !11, i64 16, !13, i64 24, !14, i64 28, !14, i64 32, !15, i64 40, !16, i64 48, !12, i64 64, !17, i64 192, !15, i64 200, !18, i64 208}
!11 = !{!"long", !12, i64 0}
!12 = !{!"omnipotent char", !7, i64 0}
!13 = !{!"_ZTSSt13_Ios_Fmtflags", !12, i64 0}
!14 = !{!"_ZTSSt12_Ios_Iostate", !12, i64 0}
!15 = !{!"any pointer", !12, i64 0}
!16 = !{!"_ZTSNSt8ios_base6_WordsE", !15, i64 0, !11, i64 8}
!17 = !{!"int", !12, i64 0}
!18 = !{!"_ZTSSt6locale", !15, i64 0}
!19 = !{!"bool", !12, i64 0}
!20 = !{!21, !12, i64 56}
!21 = !{!"_ZTSSt5ctypeIcE", !22, i64 0, !15, i64 16, !19, i64 24, !15, i64 32, !15, i64 40, !15, i64 48, !12, i64 56, !12, i64 57, !12, i64 313, !12, i64 569}
!22 = !{!"_ZTSNSt6locale5facetE", !17, i64 8}
!23 = !{!12, !12, i64 0}
