; ModuleID = './inp/file3.cpp'
source_filename = "./inp/file3.cpp"
target datalayout = "e-m:e-p270:32:32-p271:32:32-p272:64:64-i64:64-f80:128-n8:16:32:64-S128"
target triple = "x86_64-unknown-linux-gnu"

module asm ".globl _ZSt21ios_base_library_initv"

%"class.std::basic_istream" = type { ptr, i64, %"class.std::basic_ios" }
%"class.std::basic_ios" = type { %"class.std::ios_base", ptr, i8, i8, ptr, ptr, ptr, ptr }
%"class.std::ios_base" = type { ptr, i64, i64, i32, i32, i32, ptr, %"struct.std::ios_base::_Words", [8 x %"struct.std::ios_base::_Words"], i32, ptr, %"class.std::locale" }
%"struct.std::ios_base::_Words" = type { ptr, i64 }
%"class.std::locale" = type { ptr }
%"class.std::basic_ostream" = type { ptr, %"class.std::basic_ios" }
%"class.std::vector" = type { %"struct.std::_Vector_base" }
%"struct.std::_Vector_base" = type { %"struct.std::_Vector_base<int, std::allocator<int>>::_Vector_impl" }
%"struct.std::_Vector_base<int, std::allocator<int>>::_Vector_impl" = type { %"struct.std::_Vector_base<int, std::allocator<int>>::_Vector_impl_data" }
%"struct.std::_Vector_base<int, std::allocator<int>>::_Vector_impl_data" = type { ptr, ptr, ptr }
%"class.std::allocator" = type { i8 }

$_ZNSt6vectorIiSaIiEEC2EmRKS0_ = comdat any

$_ZNSt6vectorIiSaIiEE17_S_check_init_lenEmRKS0_ = comdat any

$_ZNSt6vectorIiSaIiEE21_M_default_initializeEm = comdat any

$_ZNSt12_Vector_baseIiSaIiEED2Ev = comdat any

$_ZNSt12_Vector_baseIiSaIiEE17_M_create_storageEm = comdat any

$_ZNSt12_Vector_baseIiSaIiEE11_M_allocateEm = comdat any

$_ZNSt15__new_allocatorIiE8allocateEmPKv = comdat any

$_ZNSt27__uninitialized_default_n_1ILb1EE18__uninit_default_nIPimEET_S3_T0_ = comdat any

$_ZSt10__fill_n_aIPimiET_S1_T0_RKT1_St26random_access_iterator_tag = comdat any

@_ZSt3cin = external global %"class.std::basic_istream", align 8
@_ZSt4cout = external global %"class.std::basic_ostream", align 8
@.str = private unnamed_addr constant [49 x i8] c"cannot create std::vector larger than max_size()\00", align 1

; Function Attrs: minsize norecurse optsize uwtable
define dso_local noundef i32 @main() local_unnamed_addr #0 personality ptr @__gxx_personality_v0 {
  %1 = alloca i32, align 4
  %2 = alloca %"class.std::vector", align 8
  %3 = alloca %"class.std::allocator", align 1
  call void @llvm.lifetime.start.p0(i64 4, ptr nonnull %1) #12
  %4 = call noundef nonnull align 8 dereferenceable(16) ptr @_ZNSirsERi(ptr noundef nonnull align 8 dereferenceable(16) @_ZSt3cin, ptr noundef nonnull align 4 dereferenceable(4) %1) #13
  call void @llvm.lifetime.start.p0(i64 24, ptr nonnull %2) #12
  %5 = load i32, ptr %1, align 4, !tbaa !5
  %6 = sext i32 %5 to i64
  call void @llvm.lifetime.start.p0(i64 1, ptr nonnull %3) #12
  call void @_ZNSt6vectorIiSaIiEEC2EmRKS0_(ptr noundef nonnull align 8 dereferenceable(24) %2, i64 noundef %6, ptr noundef nonnull align 1 dereferenceable(1) %3) #13
  call void @llvm.lifetime.end.p0(i64 1, ptr nonnull %3) #12
  br label %7

7:                                                ; preds = %19, %0
  %8 = phi i64 [ %20, %19 ], [ 0, %0 ]
  %9 = load i32, ptr %1, align 4, !tbaa !5
  %10 = sext i32 %9 to i64
  %11 = icmp slt i64 %8, %10
  %12 = load ptr, ptr %2, align 8
  br i1 %11, label %16, label %13

13:                                               ; preds = %7
  %14 = call i32 @llvm.smax.i32(i32 %9, i32 0)
  %15 = zext i32 %14 to i64
  br label %23

16:                                               ; preds = %7
  %17 = getelementptr inbounds i32, ptr %12, i64 %8
  %18 = invoke noundef nonnull align 8 dereferenceable(16) ptr @_ZNSirsERi(ptr noundef nonnull align 8 dereferenceable(16) @_ZSt3cin, ptr noundef nonnull align 4 dereferenceable(4) %17) #13
          to label %19 unwind label %21

19:                                               ; preds = %16
  %20 = add nuw nsw i64 %8, 1
  br label %7, !llvm.loop !9

21:                                               ; preds = %16
  %22 = landingpad { ptr, i32 }
          cleanup
  br label %39

23:                                               ; preds = %13, %29
  %24 = phi i64 [ 0, %13 ], [ %33, %29 ]
  %25 = phi i32 [ -2147483648, %13 ], [ %32, %29 ]
  %26 = icmp eq i64 %24, %15
  br i1 %26, label %27, label %29

27:                                               ; preds = %23
  %28 = invoke noundef nonnull align 8 dereferenceable(8) ptr @_ZNSolsEi(ptr noundef nonnull align 8 dereferenceable(8) @_ZSt4cout, i32 noundef %25) #13
          to label %34 unwind label %37

29:                                               ; preds = %23
  %30 = getelementptr inbounds i32, ptr %12, i64 %24
  %31 = load i32, ptr %30, align 4, !tbaa !5
  %32 = call i32 @llvm.smax.i32(i32 %25, i32 %31)
  %33 = add nuw nsw i64 %24, 1
  br label %23, !llvm.loop !11

34:                                               ; preds = %27
  %35 = invoke noundef nonnull align 8 dereferenceable(8) ptr @_ZSt4endlIcSt11char_traitsIcEERSt13basic_ostreamIT_T0_ES6_(ptr noundef nonnull align 8 dereferenceable(8) %28) #13
          to label %36 unwind label %37

36:                                               ; preds = %34
  call void @_ZNSt12_Vector_baseIiSaIiEED2Ev(ptr noundef nonnull align 8 dereferenceable(24) %2) #14
  call void @llvm.lifetime.end.p0(i64 24, ptr nonnull %2) #12
  call void @llvm.lifetime.end.p0(i64 4, ptr nonnull %1) #12
  ret i32 0

37:                                               ; preds = %34, %27
  %38 = landingpad { ptr, i32 }
          cleanup
  br label %39

39:                                               ; preds = %37, %21
  %40 = phi { ptr, i32 } [ %22, %21 ], [ %38, %37 ]
  call void @_ZNSt12_Vector_baseIiSaIiEED2Ev(ptr noundef nonnull align 8 dereferenceable(24) %2) #14
  call void @llvm.lifetime.end.p0(i64 24, ptr nonnull %2) #12
  call void @llvm.lifetime.end.p0(i64 4, ptr nonnull %1) #12
  resume { ptr, i32 } %40
}

; Function Attrs: mustprogress nocallback nofree nosync nounwind willreturn memory(argmem: readwrite)
declare void @llvm.lifetime.start.p0(i64 immarg, ptr nocapture) #1

; Function Attrs: minsize optsize
declare noundef nonnull align 8 dereferenceable(16) ptr @_ZNSirsERi(ptr noundef nonnull align 8 dereferenceable(16), ptr noundef nonnull align 4 dereferenceable(4)) local_unnamed_addr #2

; Function Attrs: minsize optsize uwtable
define linkonce_odr dso_local void @_ZNSt6vectorIiSaIiEEC2EmRKS0_(ptr noundef nonnull align 8 dereferenceable(24) %0, i64 noundef %1, ptr noundef nonnull align 1 dereferenceable(1) %2) unnamed_addr #3 comdat align 2 personality ptr @__gxx_personality_v0 {
  %4 = tail call noundef i64 @_ZNSt6vectorIiSaIiEE17_S_check_init_lenEmRKS0_(i64 noundef %1, ptr noundef nonnull align 1 dereferenceable(1) %2) #13
  tail call void @llvm.memset.p0.i64(ptr noundef nonnull align 8 dereferenceable(24) %0, i8 0, i64 24, i1 false)
  tail call void @_ZNSt12_Vector_baseIiSaIiEE17_M_create_storageEm(ptr noundef nonnull align 8 dereferenceable(24) %0, i64 noundef %4) #13
  invoke void @_ZNSt6vectorIiSaIiEE21_M_default_initializeEm(ptr noundef nonnull align 8 dereferenceable(24) %0, i64 noundef %1) #13
          to label %5 unwind label %6

5:                                                ; preds = %3
  ret void

6:                                                ; preds = %3
  %7 = landingpad { ptr, i32 }
          cleanup
  tail call void @_ZNSt12_Vector_baseIiSaIiEED2Ev(ptr noundef nonnull align 8 dereferenceable(24) %0) #14
  resume { ptr, i32 } %7
}

declare i32 @__gxx_personality_v0(...)

; Function Attrs: mustprogress nocallback nofree nosync nounwind willreturn memory(argmem: readwrite)
declare void @llvm.lifetime.end.p0(i64 immarg, ptr nocapture) #1

; Function Attrs: minsize optsize
declare noundef nonnull align 8 dereferenceable(8) ptr @_ZNSolsEi(ptr noundef nonnull align 8 dereferenceable(8), i32 noundef) local_unnamed_addr #2

; Function Attrs: inlinehint minsize mustprogress optsize uwtable
declare noundef nonnull align 8 dereferenceable(8) ptr @_ZSt4endlIcSt11char_traitsIcEERSt13basic_ostreamIT_T0_ES6_(ptr noundef nonnull align 8 dereferenceable(8)) local_unnamed_addr #4

; Function Attrs: minsize optsize uwtable
define linkonce_odr dso_local noundef i64 @_ZNSt6vectorIiSaIiEE17_S_check_init_lenEmRKS0_(i64 noundef %0, ptr noundef nonnull align 1 dereferenceable(1) %1) local_unnamed_addr #3 comdat align 2 personality ptr @__gxx_personality_v0 {
  %3 = icmp ugt i64 %0, 2305843009213693951
  br i1 %3, label %4, label %5

4:                                                ; preds = %2
  tail call void @_ZSt20__throw_length_errorPKc(ptr noundef nonnull @.str) #15
  unreachable

5:                                                ; preds = %2
  ret i64 %0
}

; Function Attrs: minsize mustprogress optsize uwtable
define linkonce_odr dso_local void @_ZNSt6vectorIiSaIiEE21_M_default_initializeEm(ptr noundef nonnull align 8 dereferenceable(24) %0, i64 noundef %1) local_unnamed_addr #5 comdat align 2 {
  %3 = load ptr, ptr %0, align 8, !tbaa !12
  %4 = tail call noundef ptr @_ZNSt27__uninitialized_default_n_1ILb1EE18__uninit_default_nIPimEET_S3_T0_(ptr noundef %3, i64 noundef %1) #13
  %5 = getelementptr inbounds %"struct.std::_Vector_base<int, std::allocator<int>>::_Vector_impl_data", ptr %0, i64 0, i32 1
  store ptr %4, ptr %5, align 8, !tbaa !15
  ret void
}

; Function Attrs: minsize nounwind optsize uwtable
define linkonce_odr dso_local void @_ZNSt12_Vector_baseIiSaIiEED2Ev(ptr noundef nonnull align 8 dereferenceable(24) %0) unnamed_addr #6 comdat align 2 personality ptr @__gxx_personality_v0 {
  %2 = load ptr, ptr %0, align 8, !tbaa !12
  %3 = icmp eq ptr %2, null
  br i1 %3, label %5, label %4

4:                                                ; preds = %1
  tail call void @_ZdlPv(ptr noundef nonnull %2) #16
  br label %5

5:                                                ; preds = %4, %1
  ret void
}

; Function Attrs: minsize noreturn optsize
declare void @_ZSt20__throw_length_errorPKc(ptr noundef) local_unnamed_addr #7

; Function Attrs: minsize mustprogress optsize uwtable
define linkonce_odr dso_local void @_ZNSt12_Vector_baseIiSaIiEE17_M_create_storageEm(ptr noundef nonnull align 8 dereferenceable(24) %0, i64 noundef %1) local_unnamed_addr #5 comdat align 2 {
  %3 = tail call noundef ptr @_ZNSt12_Vector_baseIiSaIiEE11_M_allocateEm(ptr noundef nonnull align 8 dereferenceable(24) %0, i64 noundef %1) #13
  store ptr %3, ptr %0, align 8, !tbaa !12
  %4 = getelementptr inbounds %"struct.std::_Vector_base<int, std::allocator<int>>::_Vector_impl_data", ptr %0, i64 0, i32 1
  store ptr %3, ptr %4, align 8, !tbaa !15
  %5 = getelementptr inbounds i32, ptr %3, i64 %1
  %6 = getelementptr inbounds %"struct.std::_Vector_base<int, std::allocator<int>>::_Vector_impl_data", ptr %0, i64 0, i32 2
  store ptr %5, ptr %6, align 8, !tbaa !16
  ret void
}

; Function Attrs: minsize mustprogress optsize uwtable
define linkonce_odr dso_local noundef ptr @_ZNSt12_Vector_baseIiSaIiEE11_M_allocateEm(ptr noundef nonnull align 8 dereferenceable(24) %0, i64 noundef %1) local_unnamed_addr #5 comdat align 2 {
  %3 = icmp eq i64 %1, 0
  br i1 %3, label %6, label %4

4:                                                ; preds = %2
  %5 = tail call noundef ptr @_ZNSt15__new_allocatorIiE8allocateEmPKv(ptr noundef nonnull align 1 dereferenceable(1) %0, i64 noundef %1, ptr noundef null) #13
  br label %6

6:                                                ; preds = %2, %4
  %7 = phi ptr [ %5, %4 ], [ null, %2 ]
  ret ptr %7
}

; Function Attrs: minsize mustprogress optsize uwtable
define linkonce_odr dso_local noundef ptr @_ZNSt15__new_allocatorIiE8allocateEmPKv(ptr noundef nonnull align 1 dereferenceable(1) %0, i64 noundef %1, ptr noundef %2) local_unnamed_addr #5 comdat align 2 {
  %4 = icmp ugt i64 %1, 2305843009213693951
  br i1 %4, label %5, label %9, !prof !17

5:                                                ; preds = %3
  %6 = icmp ugt i64 %1, 4611686018427387903
  br i1 %6, label %7, label %8

7:                                                ; preds = %5
  tail call void @_ZSt28__throw_bad_array_new_lengthv() #15
  unreachable

8:                                                ; preds = %5
  tail call void @_ZSt17__throw_bad_allocv() #15
  unreachable

9:                                                ; preds = %3
  %10 = shl nuw nsw i64 %1, 2
  %11 = tail call noalias noundef nonnull ptr @_Znwm(i64 noundef %10) #17
  ret ptr %11
}

; Function Attrs: minsize noreturn optsize
declare void @_ZSt28__throw_bad_array_new_lengthv() local_unnamed_addr #7

; Function Attrs: minsize noreturn optsize
declare void @_ZSt17__throw_bad_allocv() local_unnamed_addr #7

; Function Attrs: minsize nobuiltin optsize allocsize(0)
declare noundef nonnull ptr @_Znwm(i64 noundef) local_unnamed_addr #8

; Function Attrs: minsize mustprogress optsize uwtable
define linkonce_odr dso_local noundef ptr @_ZNSt27__uninitialized_default_n_1ILb1EE18__uninit_default_nIPimEET_S3_T0_(ptr noundef %0, i64 noundef %1) local_unnamed_addr #5 comdat align 2 {
  %3 = icmp eq i64 %1, 0
  br i1 %3, label %8, label %4

4:                                                ; preds = %2
  store i32 0, ptr %0, align 4, !tbaa !5
  %5 = getelementptr inbounds i32, ptr %0, i64 1
  %6 = add i64 %1, -1
  %7 = tail call noundef ptr @_ZSt10__fill_n_aIPimiET_S1_T0_RKT1_St26random_access_iterator_tag(ptr noundef nonnull %5, i64 noundef %6, ptr noundef nonnull align 4 dereferenceable(4) %0) #13
  br label %8

8:                                                ; preds = %4, %2
  %9 = phi ptr [ %7, %4 ], [ %0, %2 ]
  ret ptr %9
}

; Function Attrs: inlinehint minsize mustprogress optsize uwtable
define linkonce_odr dso_local noundef ptr @_ZSt10__fill_n_aIPimiET_S1_T0_RKT1_St26random_access_iterator_tag(ptr noundef %0, i64 noundef %1, ptr noundef nonnull align 4 dereferenceable(4) %2) local_unnamed_addr #4 comdat {
  %4 = icmp eq i64 %1, 0
  br i1 %4, label %13, label %5

5:                                                ; preds = %3
  %6 = getelementptr inbounds i32, ptr %0, i64 %1
  %7 = load i32, ptr %2, align 4, !tbaa !5
  br label %8

8:                                                ; preds = %11, %5
  %9 = phi ptr [ %0, %5 ], [ %12, %11 ]
  %10 = icmp eq ptr %9, %6
  br i1 %10, label %13, label %11

11:                                               ; preds = %8
  store i32 %7, ptr %9, align 4, !tbaa !5
  %12 = getelementptr inbounds i32, ptr %9, i64 1
  br label %8, !llvm.loop !18

13:                                               ; preds = %8, %3
  %14 = phi ptr [ %0, %3 ], [ %6, %8 ]
  ret ptr %14
}

; Function Attrs: minsize nobuiltin nounwind optsize
declare void @_ZdlPv(ptr noundef) local_unnamed_addr #9

; Function Attrs: nocallback nofree nounwind willreturn memory(argmem: write)
declare void @llvm.memset.p0.i64(ptr nocapture writeonly, i8, i64, i1 immarg) #10

; Function Attrs: nocallback nofree nosync nounwind speculatable willreturn memory(none)
declare i32 @llvm.smax.i32(i32, i32) #11

attributes #0 = { minsize norecurse optsize uwtable "min-legal-vector-width"="0" "no-trapping-math"="true" "stack-protector-buffer-size"="8" "target-cpu"="x86-64" "target-features"="+cmov,+cx8,+fxsr,+mmx,+sse,+sse2,+x87" "tune-cpu"="generic" }
attributes #1 = { mustprogress nocallback nofree nosync nounwind willreturn memory(argmem: readwrite) }
attributes #2 = { minsize optsize "no-trapping-math"="true" "stack-protector-buffer-size"="8" "target-cpu"="x86-64" "target-features"="+cmov,+cx8,+fxsr,+mmx,+sse,+sse2,+x87" "tune-cpu"="generic" }
attributes #3 = { minsize optsize uwtable "min-legal-vector-width"="0" "no-trapping-math"="true" "stack-protector-buffer-size"="8" "target-cpu"="x86-64" "target-features"="+cmov,+cx8,+fxsr,+mmx,+sse,+sse2,+x87" "tune-cpu"="generic" }
attributes #4 = { inlinehint minsize mustprogress optsize uwtable "min-legal-vector-width"="0" "no-trapping-math"="true" "stack-protector-buffer-size"="8" "target-cpu"="x86-64" "target-features"="+cmov,+cx8,+fxsr,+mmx,+sse,+sse2,+x87" "tune-cpu"="generic" }
attributes #5 = { minsize mustprogress optsize uwtable "min-legal-vector-width"="0" "no-trapping-math"="true" "stack-protector-buffer-size"="8" "target-cpu"="x86-64" "target-features"="+cmov,+cx8,+fxsr,+mmx,+sse,+sse2,+x87" "tune-cpu"="generic" }
attributes #6 = { minsize nounwind optsize uwtable "min-legal-vector-width"="0" "no-trapping-math"="true" "stack-protector-buffer-size"="8" "target-cpu"="x86-64" "target-features"="+cmov,+cx8,+fxsr,+mmx,+sse,+sse2,+x87" "tune-cpu"="generic" }
attributes #7 = { minsize noreturn optsize "no-trapping-math"="true" "stack-protector-buffer-size"="8" "target-cpu"="x86-64" "target-features"="+cmov,+cx8,+fxsr,+mmx,+sse,+sse2,+x87" "tune-cpu"="generic" }
attributes #8 = { minsize nobuiltin optsize allocsize(0) "no-trapping-math"="true" "stack-protector-buffer-size"="8" "target-cpu"="x86-64" "target-features"="+cmov,+cx8,+fxsr,+mmx,+sse,+sse2,+x87" "tune-cpu"="generic" }
attributes #9 = { minsize nobuiltin nounwind optsize "no-trapping-math"="true" "stack-protector-buffer-size"="8" "target-cpu"="x86-64" "target-features"="+cmov,+cx8,+fxsr,+mmx,+sse,+sse2,+x87" "tune-cpu"="generic" }
attributes #10 = { nocallback nofree nounwind willreturn memory(argmem: write) }
attributes #11 = { nocallback nofree nosync nounwind speculatable willreturn memory(none) }
attributes #12 = { nounwind }
attributes #13 = { minsize optsize }
attributes #14 = { minsize nounwind optsize }
attributes #15 = { minsize noreturn optsize }
attributes #16 = { builtin minsize nounwind optsize }
attributes #17 = { builtin minsize optsize allocsize(0) }

!llvm.module.flags = !{!0, !1, !2, !3}
!llvm.ident = !{!4}

!0 = !{i32 1, !"wchar_size", i32 4}
!1 = !{i32 8, !"PIC Level", i32 2}
!2 = !{i32 7, !"PIE Level", i32 2}
!3 = !{i32 7, !"uwtable", i32 2}
!4 = !{!"clang version 17.0.6 (https://github.com/llvm/llvm-project.git 6009708b4367171ccdbf4b5905cb6a803753fe18)"}
!5 = !{!6, !6, i64 0}
!6 = !{!"int", !7, i64 0}
!7 = !{!"omnipotent char", !8, i64 0}
!8 = !{!"Simple C++ TBAA"}
!9 = distinct !{!9, !10}
!10 = !{!"llvm.loop.mustprogress"}
!11 = distinct !{!11, !10}
!12 = !{!13, !14, i64 0}
!13 = !{!"_ZTSNSt12_Vector_baseIiSaIiEE17_Vector_impl_dataE", !14, i64 0, !14, i64 8, !14, i64 16}
!14 = !{!"any pointer", !7, i64 0}
!15 = !{!13, !14, i64 8}
!16 = !{!13, !14, i64 16}
!17 = !{!"branch_weights", i32 1, i32 2000}
!18 = distinct !{!18, !10}
